target datalayout = "e-m:e-p270:32:32-p271:32:32-p272:64:64-i64:64-i128:128-f80:128-n8:16:32:64-S128"
target triple = "x86_64-pc-linux-gnu"

%struct.crypto_hash_sha256_state = type { [8 x i32], i64, [64 x i8] }

@crypto_hash_sha256_init.sha256_initial_state = internal constant [8 x i32] [i32 1779033703, i32 -1150833019, i32 1013904242, i32 -1521486534, i32 1359893119, i32 -1694144372, i32 528734635, i32 1541459225], align 16

; Function Attrs: alwaysinline nounwind
define internal ptr @memcpy.inline(ptr noalias nonnull %0, ptr noalias nonnull %1, i64 %2) #1 {
  %4 = alloca ptr, align 8
  %5 = alloca ptr, align 8
  %6 = alloca i64, align 8
  store ptr %0, ptr %4, align 8
  store ptr %1, ptr %5, align 8
  store i64 %2, ptr %6, align 8
  %7 = load ptr, ptr %4, align 8
  %8 = load ptr, ptr %5, align 8
  %9 = load i64, ptr %6, align 8
  %10 = load ptr, ptr %4, align 8
  %11 = call i64 @llvm.objectsize.i64.p0(ptr %10, i1 false, i1 true, i1 true)
  %12 = call ptr @__memcpy_chk(ptr noundef %7, ptr noundef %8, i64 noundef %9, i64 noundef %11) #7
  ret ptr %12
}

; Function Attrs: nounwind ssp uwtable
define dso_local i32 @crypto_hash_sha256_init(ptr noundef nonnull %0) #0 {
  %2 = alloca ptr, align 8
  store ptr %0, ptr %2, align 8
  %3 = load ptr, ptr %2, align 8
  %4 = getelementptr inbounds nuw %struct.crypto_hash_sha256_state, ptr %3, i32 0, i32 1
  store i64 0, ptr %4, align 8
  %5 = load ptr, ptr %2, align 8
  %6 = getelementptr inbounds nuw %struct.crypto_hash_sha256_state, ptr %5, i32 0, i32 0
  %7 = getelementptr inbounds [8 x i32], ptr %6, i64 0, i64 0
  %8 = call ptr @memcpy.inline(ptr noundef %7, ptr noundef @crypto_hash_sha256_init.sha256_initial_state, i64 noundef 32) #7
  ret i32 0
}

; Function Attrs: nounwind ssp uwtable
define dso_local i32 @crypto_hash_sha256(ptr noundef nonnull %0, ptr noundef %1, i64 noundef %2) #0 {
  %4 = alloca ptr, align 8
  %5 = alloca ptr, align 8
  %6 = alloca i64, align 8
  %7 = alloca %struct.crypto_hash_sha256_state, align 8
  store ptr %0, ptr %4, align 8
  store ptr %1, ptr %5, align 8
  store i64 %2, ptr %6, align 8
  call void @llvm.lifetime.start.p0(i64 104, ptr %7) #7
  %8 = call i32 @crypto_hash_sha256_init(ptr noundef %7)
  %9 = load ptr, ptr %5, align 8
  %10 = load i64, ptr %6, align 8
  %11 = call i32 @crypto_hash_sha256_update(ptr noundef %7, ptr noundef %9, i64 noundef %10)
  %12 = load ptr, ptr %4, align 8
  %13 = call i32 @crypto_hash_sha256_final(ptr noundef %7, ptr noundef %12)
  call void @llvm.lifetime.end.p0(i64 104, ptr %7) #7
  ret i32 0
}