; Function Attrs: nounwind ssp uwtable
define dso_local noundef i32 @crypto_hash_sha256(ptr noundef nonnull writeonly captures(none) %0, ptr noundef readonly captures(none) %1, i64 noundef %2) local_unnamed_addr #1 {
  %4 = alloca %struct.crypto_hash_sha256_state, align 8
  call void @llvm.lifetime.start.p0(i64 104, ptr nonnull %4) #7
  %5 = getelementptr inbounds nuw i8, ptr %4, i64 32
  store i64 0, ptr %5, align 8
  call void @llvm.memcpy.p0.p0.i64(ptr noundef nonnull align 8 dereferenceable(32) %4, ptr noundef nonnull align 16 dereferenceable(32) @crypto_hash_sha256_init.sha256_initial_state, i64 noundef 32, i1 noundef false) #7
  %6 = call i32 @crypto_hash_sha256_update(ptr noundef %4, ptr noundef %1, i64 noundef %2)
  %7 = call i32 @crypto_hash_sha256_final(ptr noundef %4, ptr noundef %0)
  call void @llvm.lifetime.end.p0(i64 104, ptr nonnull %4) #7
  ret i32 0
}